target datalayout = "e-m:e-p270:32:32-p271:32:32-p272:64:64-i64:64-i128:128-f80:128-n8:16:32:64-S128"
target triple = "x86_64-pc-linux-gnu"

; Function Attrs: inlinehint nounwind uwtable
define internal i32 @Clip255(i32 noundef %0) #2 {
  %2 = alloca i32, align 4
  %3 = alloca i32, align 4
  store i32 %0, ptr %3, align 4, !tbaa !8
  %4 = load i32, ptr %3, align 4, !tbaa !8
  %5 = icmp ult i32 %4, 256
  br i1 %5, label %6, label %8

6:                                                ; preds = %1
  %7 = load i32, ptr %3, align 4, !tbaa !8
  store i32 %7, ptr %2, align 4
  br label %12

8:                                                ; preds = %1
  %9 = load i32, ptr %3, align 4, !tbaa !8
  %10 = xor i32 %9, -1
  %11 = lshr i32 %10, 24
  store i32 %11, ptr %2, align 4
  br label %12

12:                                               ; preds = %8, %6
  %13 = load i32, ptr %2, align 4
  ret i32 %13
}

; Function Attrs: inlinehint nounwind uwtable
define internal i32 @AddSubtractComponentFull(i32 noundef %0, i32 noundef %1, i32 noundef %2) #2 {
  %4 = alloca i32, align 4
  %5 = alloca i32, align 4
  %6 = alloca i32, align 4
  store i32 %0, ptr %4, align 4, !tbaa !8
  store i32 %1, ptr %5, align 4, !tbaa !8
  store i32 %2, ptr %6, align 4, !tbaa !8
  %7 = load i32, ptr %4, align 4, !tbaa !8
  %8 = load i32, ptr %5, align 4, !tbaa !8
  %9 = add nsw i32 %7, %8
  %10 = load i32, ptr %6, align 4, !tbaa !8
  %11 = sub nsw i32 %9, %10
  %12 = call i32 @Clip255(i32 noundef %11)
  ret i32 %12
}

; Function Attrs: inlinehint nounwind uwtable
define internal i32 @ClampedAddSubtractFull(i32 noundef %0, i32 noundef %1, i32 noundef %2) #2 {
  %4 = alloca i32, align 4
  %5 = alloca i32, align 4
  %6 = alloca i32, align 4
  %7 = alloca i32, align 4
  %8 = alloca i32, align 4
  %9 = alloca i32, align 4
  %10 = alloca i32, align 4
  store i32 %0, ptr %4, align 4, !tbaa !8
  store i32 %1, ptr %5, align 4, !tbaa !8
  store i32 %2, ptr %6, align 4, !tbaa !8
  call void @llvm.lifetime.start.p0(i64 4, ptr %7) #8
  %11 = load i32, ptr %4, align 4, !tbaa !8
  %12 = lshr i32 %11, 24
  %13 = load i32, ptr %5, align 4, !tbaa !8
  %14 = lshr i32 %13, 24
  %15 = load i32, ptr %6, align 4, !tbaa !8
  %16 = lshr i32 %15, 24
  %17 = call i32 @AddSubtractComponentFull(i32 noundef %12, i32 noundef %14, i32 noundef %16)
  store i32 %17, ptr %7, align 4, !tbaa !8
  call void @llvm.lifetime.start.p0(i64 4, ptr %8) #8
  %18 = load i32, ptr %4, align 4, !tbaa !8
  %19 = lshr i32 %18, 16
  %20 = and i32 %19, 255
  %21 = load i32, ptr %5, align 4, !tbaa !8
  %22 = lshr i32 %21, 16
  %23 = and i32 %22, 255
  %24 = load i32, ptr %6, align 4, !tbaa !8
  %25 = lshr i32 %24, 16
  %26 = and i32 %25, 255
  %27 = call i32 @AddSubtractComponentFull(i32 noundef %20, i32 noundef %23, i32 noundef %26)
  store i32 %27, ptr %8, align 4, !tbaa !8
  call void @llvm.lifetime.start.p0(i64 4, ptr %9) #8
  %28 = load i32, ptr %4, align 4, !tbaa !8
  %29 = lshr i32 %28, 8
  %30 = and i32 %29, 255
  %31 = load i32, ptr %5, align 4, !tbaa !8
  %32 = lshr i32 %31, 8
  %33 = and i32 %32, 255
  %34 = load i32, ptr %6, align 4, !tbaa !8
  %35 = lshr i32 %34, 8
  %36 = and i32 %35, 255
  %37 = call i32 @AddSubtractComponentFull(i32 noundef %30, i32 noundef %33, i32 noundef %36)
  store i32 %37, ptr %9, align 4, !tbaa !8
  call void @llvm.lifetime.start.p0(i64 4, ptr %10) #8
  %38 = load i32, ptr %4, align 4, !tbaa !8
  %39 = and i32 %38, 255
  %40 = load i32, ptr %5, align 4, !tbaa !8
  %41 = and i32 %40, 255
  %42 = load i32, ptr %6, align 4, !tbaa !8
  %43 = and i32 %42, 255
  %44 = call i32 @AddSubtractComponentFull(i32 noundef %39, i32 noundef %41, i32 noundef %43)
  store i32 %44, ptr %10, align 4, !tbaa !8
  %45 = load i32, ptr %7, align 4, !tbaa !8
  %46 = shl i32 %45, 24
  %47 = load i32, ptr %8, align 4, !tbaa !8
  %48 = shl i32 %47, 16
  %49 = or i32 %46, %48
  %50 = load i32, ptr %9, align 4, !tbaa !8
  %51 = shl i32 %50, 8
  %52 = or i32 %49, %51
  %53 = load i32, ptr %10, align 4, !tbaa !8
  %54 = or i32 %52, %53
  call void @llvm.lifetime.end.p0(i64 4, ptr %10) #8
  call void @llvm.lifetime.end.p0(i64 4, ptr %9) #8
  call void @llvm.lifetime.end.p0(i64 4, ptr %8) #8
  call void @llvm.lifetime.end.p0(i64 4, ptr %7) #8
  ret i32 %54
}

; Function Attrs: nounwind uwtable
define hidden i32 @VP8LPredictor12_C(ptr noundef %0, ptr noundef %1) #0 {
  %3 = alloca ptr, align 8
  %4 = alloca ptr, align 8
  %5 = alloca i32, align 4
  store ptr %0, ptr %3, align 8, !tbaa !3
  store ptr %1, ptr %4, align 8, !tbaa !3
  call void @llvm.lifetime.start.p0(i64 4, ptr %5) #8
  %6 = load ptr, ptr %3, align 8, !tbaa !3
  %7 = load i32, ptr %6, align 4, !tbaa !8
  %8 = load ptr, ptr %4, align 8, !tbaa !3
  %9 = getelementptr inbounds i32, ptr %8, i64 0
  %10 = load i32, ptr %9, align 4, !tbaa !8
  %11 = load ptr, ptr %4, align 8, !tbaa !3
  %12 = getelementptr inbounds i32, ptr %11, i64 -1
  %13 = load i32, ptr %12, align 4, !tbaa !8
  %14 = call i32 @ClampedAddSubtractFull(i32 noundef %7, i32 noundef %10, i32 noundef %13)
  store i32 %14, ptr %5, align 4, !tbaa !8
  %15 = load i32, ptr %5, align 4, !tbaa !8
  call void @llvm.lifetime.end.p0(i64 4, ptr %5) #8
  ret i32 %15
}