; Function Attrs: mustprogress nofree norecurse nosync nounwind willreturn memory(argmem: read) uwtable
define hidden i32 @VP8LPredictor12_C(ptr noundef readonly captures(none) %0, ptr noundef readonly captures(none) %1) #0 {
  %3 = load i32, ptr %0, align 4, !tbaa !3
  %4 = load i32, ptr %1, align 4, !tbaa !3
  %5 = getelementptr inbounds i8, ptr %1, i64 -4
  %6 = load i32, ptr %5, align 4, !tbaa !3
  %7 = lshr i32 %3, 24
  %8 = lshr i32 %4, 24
  %9 = lshr i32 %6, 24
  %10 = add nuw nsw i32 %8, %7
  %11 = sub nsw i32 %10, %9
  %12 = icmp ult i32 %11, 256
  %13 = xor i32 %11, -1
  %14 = lshr i32 %13, 24
  %.0.i.i.i = select i1 %12, i32 %11, i32 %14
  %15 = lshr i32 %3, 16
  %16 = and i32 %15, 255
  %17 = lshr i32 %4, 16
  %18 = and i32 %17, 255
  %19 = lshr i32 %6, 16
  %20 = and i32 %19, 255
  %21 = add nuw nsw i32 %18, %16
  %22 = sub nsw i32 %21, %20
  %23 = icmp ult i32 %22, 256
  %24 = xor i32 %22, -1
  %25 = lshr i32 %24, 24
  %.0.i.i16.i = select i1 %23, i32 %22, i32 %25
  %26 = lshr i32 %3, 8
  %27 = and i32 %26, 255
  %28 = lshr i32 %4, 8
  %29 = and i32 %28, 255
  %30 = lshr i32 %6, 8
  %31 = and i32 %30, 255
  %32 = add nuw nsw i32 %29, %27
  %33 = sub nsw i32 %32, %31
  %34 = icmp ult i32 %33, 256
  %35 = xor i32 %33, -1
  %36 = lshr i32 %35, 24
  %.0.i.i17.i = select i1 %34, i32 %33, i32 %36
  %37 = and i32 %3, 255
  %38 = and i32 %4, 255
  %39 = and i32 %6, 255
  %40 = add nuw nsw i32 %38, %37
  %41 = sub nsw i32 %40, %39
  %42 = icmp ult i32 %41, 256
  %43 = xor i32 %41, -1
  %44 = lshr i32 %43, 24
  %.0.i.i18.i = select i1 %42, i32 %41, i32 %44
  %45 = shl nuw i32 %.0.i.i.i, 24
  %46 = shl nuw nsw i32 %.0.i.i16.i, 16
  %47 = shl nuw nsw i32 %.0.i.i17.i, 8
  %48 = add nuw nsw i32 %45, %.0.i.i18.i
  %49 = add nuw nsw i32 %48, %46
  %50 = add nuw nsw i32 %49, %47
  ret i32 %50
}